(dp1
S'filedelete'
p2
ccopy_reg
_reconstructor
p3
(ctwisted.plugin
CachedDropin
p4
c__builtin__
object
p5
NtRp6
(dp7
S'moduleName'
p8
S'twisted.plugins.filedelete'
p9
sS'description'
p10
NsS'plugins'
p11
(lp12
g3
(ctwisted.plugin
CachedPlugin
p13
g5
NtRp14
(dp15
S'provided'
p16
(lp17
ctwisted.plugin
IPlugin
p18
acpyrikura.ipyrikura
IPyrikuraPlugin
p19
asS'dropin'
p20
g6
sS'name'
p21
S'factory'
p22
sg10
NsbasbsS'imagethumb'
p23
g3
(g4
g5
NtRp24
(dp25
g8
S'twisted.plugins.imagethumb'
p26
sg10
Nsg11
(lp27
g3
(g13
g5
NtRp28
(dp29
g16
(lp30
g18
ag19
asg20
g24
sg21
S'factory'
p31
sg10
NsbasbsS'arduino'
p32
g3
(g4
g5
NtRp33
(dp34
g8
S'twisted.plugins.arduino'
p35
sg10
Nsg11
(lp36
sbsS'filespool'
p37
g3
(g4
g5
NtRp38
(dp39
g8
S'twisted.plugins.filespool'
p40
sg10
Nsg11
(lp41
g3
(g13
g5
NtRp42
(dp43
g16
(lp44
g18
ag19
asg20
g38
sg21
g31
sg10
NsbasbsS'shutter'
p45
g3
(g4
g5
NtRp46
(dp47
g8
S'twisted.plugins.shutter'
p48
sg10
Nsg11
(lp49
g3
(g13
g5
NtRp50
(dp51
g16
(lp52
g18
acpyrikura.ipyrikura
ICameraProvider
p53
asg20
g46
sg21
S'factory'
p54
sg10
NsbasbsS'filecopy'
p55
g3
(g4
g5
NtRp56
(dp57
g8
S'twisted.plugins.filecopy'
p58
sg10
Nsg11
(lp59
g3
(g13
g5
NtRp60
(dp61
g16
(lp62
g18
ag19
asg20
g56
sg21
S'factory'
p63
sg10
NsbasbsS'filewatcher'
p64
g3
(g4
g5
NtRp65
(dp66
g8
S'twisted.plugins.filewatcher'
p67
sg10
Nsg11
(lp68
g3
(g13
g5
NtRp69
(dp70
g16
(lp71
g18
asg20
g65
sg21
g54
sg10
NsbasbsS'imagetweet'
p72
g3
(g4
g5
NtRp73
(dp74
g8
S'twisted.plugins.imagetweet'
p75
sg10
Nsg11
(lp76
sbs.