(dp1
S'filedelete'
p2
ccopy_reg
_reconstructor
p3
(ctwisted.plugin
CachedDropin
p4
c__builtin__
object
p5
NtRp6
(dp7
S'moduleName'
p8
S'twisted.plugins.filedelete'
p9
sS'description'
p10
NsS'plugins'
p11
(lp12
g3
(ctwisted.plugin
CachedPlugin
p13
g5
NtRp14
(dp15
S'provided'
p16
(lp17
ctwisted.plugin
IPlugin
p18
acpyrikura.ipyrikura
IPyrikuraPlugin
p19
asS'dropin'
p20
g6
sS'name'
p21
S'factory'
p22
sg10
NsbasbsS'imagethumb'
p23
g3
(g4
g5
NtRp24
(dp25
g8
S'twisted.plugins.imagethumb'
p26
sg10
Nsg11
(lp27
g3
(g13
g5
NtRp28
(dp29
g16
(lp30
g18
ag19
asg20
g24
sg21
S'factory'
p31
sg10
NsbasbsS'arduino'
p32
g3
(g4
g5
NtRp33
(dp34
g8
S'twisted.plugins.arduino'
p35
sg10
Nsg11
(lp36
sbsS'filespool'
p37
g3
(g4
g5
NtRp38
(dp39
g8
S'twisted.plugins.filespool'
p40
sg10
Nsg11
(lp41
g3
(g13
g5
NtRp42
(dp43
g16
(lp44
g18
ag19
asg20
g38
sg21
S'factory'
p45
sg10
NsbasbsS'shutter'
p46
g3
(g4
g5
NtRp47
(dp48
g8
S'twisted.plugins.shutter'
p49
sg10
Nsg11
(lp50
g3
(g13
g5
NtRp51
(dp52
g16
(lp53
g18
acpyrikura.ipyrikura
ICameraProvider
p54
asg20
g47
sg21
S'factory'
p55
sg10
NsbasbsS'filecopy'
p56
g3
(g4
g5
NtRp57
(dp58
g8
S'twisted.plugins.filecopy'
p59
sg10
Nsg11
(lp60
g3
(g13
g5
NtRp61
(dp62
g16
(lp63
g18
ag19
asg20
g57
sg21
g22
sg10
NsbasbsS'composer'
p64
g3
(g4
g5
NtRp65
(dp66
g8
S'twisted.plugins.composer'
p67
sg10
Nsg11
(lp68
g3
(g13
g5
NtRp69
(dp70
g16
(lp71
g18
ag19
asg20
g65
sg21
S'factory'
p72
sg10
NsbasbsS'filewatcher'
p73
g3
(g4
g5
NtRp74
(dp75
g8
S'twisted.plugins.filewatcher'
p76
sg10
Nsg11
(lp77
g3
(g13
g5
NtRp78
(dp79
g16
(lp80
g18
asg20
g74
sg21
g45
sg10
NsbasbsS'imagetweet'
p81
g3
(g4
g5
NtRp82
(dp83
g8
S'twisted.plugins.imagetweet'
p84
sg10
Nsg11
(lp85
sbs.