(dp1
S'filedelete'
p2
ccopy_reg
_reconstructor
p3
(ctwisted.plugin
CachedDropin
p4
c__builtin__
object
p5
NtRp6
(dp7
S'moduleName'
p8
S'twisted.plugins.filedelete'
p9
sS'description'
p10
NsS'plugins'
p11
(lp12
g3
(ctwisted.plugin
CachedPlugin
p13
g5
NtRp14
(dp15
S'provided'
p16
(lp17
ctwisted.plugin
IPlugin
p18
acpyrikura.ipyrikura
IPyrikuraPlugin
p19
asS'dropin'
p20
g6
sS'name'
p21
S'factory'
p22
sg10
NsbasbsS'imagethumb'
p23
g3
(g4
g5
NtRp24
(dp25
g8
S'twisted.plugins.imagethumb'
p26
sg10
Nsg11
(lp27
g3
(g13
g5
NtRp28
(dp29
g16
(lp30
g18
ag19
asg20
g24
sg21
S'factory'
p31
sg10
NsbasbsS'shuttercamera'
p32
g3
(g4
g5
NtRp33
(dp34
g8
S'twisted.plugins.shuttercamera'
p35
sg10
Nsg11
(lp36
g3
(g13
g5
NtRp37
(dp38
g16
(lp39
g18
ag19
asg20
g33
sg21
g22
sg10
NsbasbsS'arduino'
p40
g3
(g4
g5
NtRp41
(dp42
g8
S'twisted.plugins.arduino'
p43
sg10
Nsg11
(lp44
sbsS'filespool'
p45
g3
(g4
g5
NtRp46
(dp47
g8
S'twisted.plugins.filespool'
p48
sg10
Nsg11
(lp49
g3
(g13
g5
NtRp50
(dp51
g16
(lp52
g18
ag19
asg20
g46
sg21
S'factory'
p53
sg10
NsbasbsS'filecopy'
p54
g3
(g4
g5
NtRp55
(dp56
g8
S'twisted.plugins.filecopy'
p57
sg10
Nsg11
(lp58
g3
(g13
g5
NtRp59
(dp60
g16
(lp61
g18
ag19
asg20
g55
sg21
g22
sg10
NsbasbsS'composer'
p62
g3
(g4
g5
NtRp63
(dp64
g8
S'twisted.plugins.composer'
p65
sg10
Nsg11
(lp66
g3
(g13
g5
NtRp67
(dp68
g16
(lp69
g18
ag19
asg20
g63
sg21
g31
sg10
NsbasbsS'filewatcher'
p70
g3
(g4
g5
NtRp71
(dp72
g8
S'twisted.plugins.filewatcher'
p73
sg10
Nsg11
(lp74
g3
(g13
g5
NtRp75
(dp76
g16
(lp77
g18
asg20
g71
sg21
S'factory'
p78
sg10
NsbasbsS'imagetweet'
p79
g3
(g4
g5
NtRp80
(dp81
g8
S'twisted.plugins.imagetweet'
p82
sg10
Nsg11
(lp83
sbs.