(dp1
S'dummy'
p2
ccopy_reg
_reconstructor
p3
(ctwisted.plugin
CachedDropin
p4
c__builtin__
object
p5
NtRp6
(dp7
S'moduleName'
p8
S'twisted.plugins.dummy'
p9
sS'description'
p10
NsS'plugins'
p11
(lp12
g3
(ctwisted.plugin
CachedPlugin
p13
g5
NtRp14
(dp15
S'provided'
p16
(lp17
ctwisted.plugin
IPlugin
p18
acpyrikura.ipyrikura
IPyrikuraPlugin
p19
asS'dropin'
p20
g6
sS'name'
p21
S'factory0'
p22
sg10
Nsbag3
(g13
g5
NtRp23
(dp24
g16
(lp25
g18
ag19
asg20
g6
sg21
S'factory1'
p26
sg10
NsbasbsS'imagethumb'
p27
g3
(g4
g5
NtRp28
(dp29
g8
S'twisted.plugins.imagethumb'
p30
sg10
Nsg11
(lp31
g3
(g13
g5
NtRp32
(dp33
g16
(lp34
g18
ag19
asg20
g28
sg21
S'factory'
p35
sg10
NsbasbsS'shuttercamera'
p36
g3
(g4
g5
NtRp37
(dp38
g8
S'twisted.plugins.shuttercamera'
p39
sg10
Nsg11
(lp40
g3
(g13
g5
NtRp41
(dp42
g16
(lp43
g18
ag19
asg20
g37
sg21
S'factory'
p44
sg10
NsbasbsS'arduino'
p45
g3
(g4
g5
NtRp46
(dp47
g8
S'twisted.plugins.arduino'
p48
sg10
Nsg11
(lp49
sbsS'filespool'
p50
g3
(g4
g5
NtRp51
(dp52
g8
S'twisted.plugins.filespool'
p53
sg10
Nsg11
(lp54
g3
(g13
g5
NtRp55
(dp56
g16
(lp57
g18
ag19
asg20
g51
sg21
S'factory'
p58
sg10
NsbasbsS'filecopy'
p59
g3
(g4
g5
NtRp60
(dp61
g8
S'twisted.plugins.filecopy'
p62
sg10
Nsg11
(lp63
g3
(g13
g5
NtRp64
(dp65
g16
(lp66
g18
ag19
asg20
g60
sg21
g44
sg10
NsbasbsS'composer'
p67
g3
(g4
g5
NtRp68
(dp69
g8
S'twisted.plugins.composer'
p70
sg10
Nsg11
(lp71
g3
(g13
g5
NtRp72
(dp73
g16
(lp74
g18
ag19
asg20
g68
sg21
g35
sg10
NsbasbsS'filewatcher'
p75
g3
(g4
g5
NtRp76
(dp77
g8
S'twisted.plugins.filewatcher'
p78
sg10
Nsg11
(lp79
g3
(g13
g5
NtRp80
(dp81
g16
(lp82
g18
asg20
g76
sg21
S'factory'
p83
sg10
NsbasbsS'imagetweet'
p84
g3
(g4
g5
NtRp85
(dp86
g8
S'twisted.plugins.imagetweet'
p87
sg10
Nsg11
(lp88
sbsS'filedelete'
p89
g3
(g4
g5
NtRp90
(dp91
g8
S'twisted.plugins.filedelete'
p92
sg10
Nsg11
(lp93
g3
(g13
g5
NtRp94
(dp95
g16
(lp96
g18
ag19
asg20
g90
sg21
g44
sg10
Nsbasbs.