(dp1
S'composer'
p2
ccopy_reg
_reconstructor
p3
(ctwisted.plugin
CachedDropin
p4
c__builtin__
object
p5
NtRp6
(dp7
S'moduleName'
p8
S'twisted.plugins.composer'
p9
sS'description'
p10
NsS'plugins'
p11
(lp12
sbs.